target datalayout = "e-m:e-p270:32:32-p271:32:32-p272:64:64-i64:64-i128:128-f80:128-n8:16:32:64-S128"
target triple = "x86_64-pc-linux-gnu"

%struct.ident_t = type { i32, i32, i32, i32, ptr }
%"class.std::function" = type { %"class.std::_Function_base", ptr }
%"class.std::_Function_base" = type { %"union.std::_Any_data", ptr }
%"union.std::_Any_data" = type { %"union.std::_Nocopy_types" }
%"union.std::_Nocopy_types" = type { { i64, i64 } }

@1 = private unnamed_addr constant %struct.ident_t { i32 0, i32 514, i32 0, i32 22, ptr @0 }, align 8
@_ZTISt9exception = external constant ptr

; Function Attrs: mustprogress nounwind uwtable
define linkonce_odr noundef zeroext i1 @_ZNKSt14_Function_base8_M_emptyEv(ptr noundef nonnull align 8 dereferenceable(24) %0) #6 comdat align 2 {
  %2 = alloca ptr, align 8
  store ptr %0, ptr %2, align 8, !tbaa !1021
  %3 = load ptr, ptr %2, align 8
  %4 = getelementptr inbounds nuw %"class.std::_Function_base", ptr %3, i32 0, i32 1
  %5 = load ptr, ptr %4, align 8, !tbaa !1020
  %6 = icmp ne ptr %5, null
  %7 = xor i1 %6, true
  ret i1 %7
}

; Function Attrs: mustprogress uwtable
define linkonce_odr void @_ZNKSt8functionIFviiiEEclEiii(ptr noundef nonnull align 8 dereferenceable(32) %0, i32 noundef %1, i32 noundef %2, i32 noundef %3) #4 comdat align 2 {
  %5 = alloca ptr, align 8
  %6 = alloca i32, align 4
  %7 = alloca i32, align 4
  %8 = alloca i32, align 4
  store ptr %0, ptr %5, align 8, !tbaa !1015
  store i32 %1, ptr %6, align 4, !tbaa !15
  store i32 %2, ptr %7, align 4, !tbaa !15
  store i32 %3, ptr %8, align 4, !tbaa !15
  %9 = load ptr, ptr %5, align 8
  %10 = call noundef zeroext i1 @_ZNKSt14_Function_base8_M_emptyEv(ptr noundef nonnull align 8 dereferenceable(24) %9)
  br i1 %10, label %11, label %12

11:                                               ; preds = %4
  call void @_ZSt25__throw_bad_function_callv() #29
  unreachable

12:                                               ; preds = %4
  %13 = getelementptr inbounds nuw %"class.std::function", ptr %9, i32 0, i32 1
  %14 = load ptr, ptr %13, align 8, !tbaa !1017
  %15 = getelementptr inbounds nuw %"class.std::_Function_base", ptr %9, i32 0, i32 0
  call void %14(ptr noundef nonnull align 8 dereferenceable(16) %15, ptr noundef nonnull align 4 dereferenceable(4) %6, ptr noundef nonnull align 4 dereferenceable(4) %7, ptr noundef nonnull align 4 dereferenceable(4) %8)
  ret void
}

; Function Attrs: inlinehint mustprogress nounwind uwtable
define linkonce_odr noundef nonnull align 4 dereferenceable(4) ptr @_ZSt3minIiERKT_S2_S2_(ptr noundef nonnull align 4 dereferenceable(4) %0, ptr noundef nonnull align 4 dereferenceable(4) %1) #10 comdat {
  %3 = alloca ptr, align 8
  %4 = alloca ptr, align 8
  %5 = alloca ptr, align 8
  store ptr %0, ptr %4, align 8, !tbaa !162
  store ptr %1, ptr %5, align 8, !tbaa !162
  %6 = load ptr, ptr %5, align 8, !tbaa !162
  %7 = load i32, ptr %6, align 4, !tbaa !15
  %8 = load ptr, ptr %4, align 8, !tbaa !162
  %9 = load i32, ptr %8, align 4, !tbaa !15
  %10 = icmp slt i32 %7, %9
  br i1 %10, label %11, label %13

11:                                               ; preds = %2
  %12 = load ptr, ptr %5, align 8, !tbaa !162
  store ptr %12, ptr %3, align 8
  br label %15

13:                                               ; preds = %2
  %14 = load ptr, ptr %4, align 8, !tbaa !162
  store ptr %14, ptr %3, align 8
  br label %15

15:                                               ; preds = %13, %11
  %16 = load ptr, ptr %3, align 8
  ret ptr %16
}

; Function Attrs: alwaysinline norecurse nounwind uwtable
define internal void @_ZN8LightGBM9Threading3ForIiEEiT_S2_S2_RKSt8functionIFviS2_S2_EE.omp_outlined(ptr noalias noundef %0, ptr noalias noundef %1, ptr noundef nonnull align 4 dereferenceable(4) %2, ptr noundef nonnull align 4 dereferenceable(4) %3, ptr noundef nonnull align 4 dereferenceable(4) %4, ptr noundef nonnull align 4 dereferenceable(4) %5, ptr noundef nonnull align 8 dereferenceable(32) %6, ptr noundef nonnull align 8 dereferenceable(48) %7) #21 personality ptr @__gxx_personality_v0 {
  %9 = alloca ptr, align 8
  %10 = alloca ptr, align 8
  %11 = alloca ptr, align 8
  %12 = alloca ptr, align 8
  %13 = alloca ptr, align 8
  %14 = alloca ptr, align 8
  %15 = alloca ptr, align 8
  %16 = alloca ptr, align 8
  %17 = alloca ptr, align 8
  %18 = alloca i32, align 4
  %19 = alloca i32, align 4
  %20 = alloca i32, align 4
  %21 = alloca i32, align 4
  %22 = alloca i32, align 4
  %23 = alloca i32, align 4
  %24 = alloca i32, align 4
  %25 = alloca i32, align 4
  %26 = alloca i32, align 4
  %27 = alloca i32, align 4
  %28 = alloca i32, align 4
  %29 = alloca i32, align 4
  %30 = alloca ptr, align 8
  %31 = alloca i32, align 4
  %32 = alloca ptr, align 8
  store ptr %0, ptr %9, align 8, !tbaa !162
  store ptr %1, ptr %10, align 8, !tbaa !162
  store ptr %2, ptr %11, align 8, !tbaa !162
  store ptr %3, ptr %12, align 8, !tbaa !162
  store ptr %4, ptr %13, align 8, !tbaa !162
  store ptr %5, ptr %14, align 8, !tbaa !162
  store ptr %6, ptr %15, align 8, !tbaa !1015
  store ptr %7, ptr %16, align 8, !tbaa !324
  %33 = load ptr, ptr %11, align 8, !tbaa !162
  %34 = load ptr, ptr %12, align 8, !tbaa !162
  %35 = load ptr, ptr %13, align 8, !tbaa !162
  %36 = load ptr, ptr %14, align 8, !tbaa !162
  %37 = load ptr, ptr %15, align 8, !tbaa !1015
  %38 = load ptr, ptr %16, align 8, !tbaa !324
  store ptr %37, ptr %17, align 8
  call void @llvm.lifetime.start.p0(i64 4, ptr %18) #3
  call void @llvm.lifetime.start.p0(i64 4, ptr %19) #3
  %39 = load i32, ptr %33, align 4, !tbaa !15
  store i32 %39, ptr %19, align 4, !tbaa !15
  call void @llvm.lifetime.start.p0(i64 4, ptr %20) #3
  %40 = load i32, ptr %19, align 4, !tbaa !15
  %41 = sub nsw i32 %40, 0
  %42 = sdiv i32 %41, 1
  %43 = sub nsw i32 %42, 1
  store i32 %43, ptr %20, align 4, !tbaa !15
  call void @llvm.lifetime.start.p0(i64 4, ptr %21) #3
  store i32 0, ptr %21, align 4, !tbaa !15
  call void @llvm.lifetime.end.p0(i64 4, ptr %21) #3
  %44 = load i32, ptr %19, align 4, !tbaa !15
  %45 = icmp slt i32 0, %44
  br i1 %45, label %46, label %135

46:                                               ; preds = %8
  call void @llvm.lifetime.start.p0(i64 4, ptr %22) #3
  store i32 0, ptr %22, align 4, !tbaa !15
  call void @llvm.lifetime.start.p0(i64 4, ptr %23) #3
  %47 = load i32, ptr %20, align 4, !tbaa !15
  store i32 %47, ptr %23, align 4, !tbaa !15
  call void @llvm.lifetime.start.p0(i64 4, ptr %24) #3
  store i32 1, ptr %24, align 4, !tbaa !15
  call void @llvm.lifetime.start.p0(i64 4, ptr %25) #3
  store i32 0, ptr %25, align 4, !tbaa !15
  call void @llvm.lifetime.start.p0(i64 4, ptr %26) #3
  %48 = load ptr, ptr %9, align 8
  %49 = load i32, ptr %48, align 4, !tbaa !15
  call void @__kmpc_for_static_init_4(ptr @1, i32 %49, i32 33, ptr %25, ptr %22, ptr %23, ptr %24, i32 1, i32 1)
  br label %50

50:                                               ; preds = %125, %46
  %51 = load i32, ptr %23, align 4, !tbaa !15
  %52 = load i32, ptr %20, align 4, !tbaa !15
  %53 = icmp sgt i32 %51, %52
  br i1 %53, label %54, label %56

54:                                               ; preds = %50
  %55 = load i32, ptr %20, align 4, !tbaa !15
  br label %58

56:                                               ; preds = %50
  %57 = load i32, ptr %23, align 4, !tbaa !15
  br label %58

58:                                               ; preds = %56, %54
  %59 = phi i32 [ %55, %54 ], [ %57, %56 ]
  store i32 %59, ptr %23, align 4, !tbaa !15
  %60 = load i32, ptr %22, align 4, !tbaa !15
  store i32 %60, ptr %18, align 4, !tbaa !15
  %61 = load i32, ptr %18, align 4, !tbaa !15
  %62 = load i32, ptr %23, align 4, !tbaa !15
  %63 = icmp sle i32 %61, %62
  br i1 %63, label %65, label %64

64:                                               ; preds = %58
  br label %132

65:                                               ; preds = %58
  br label %66

66:                                               ; preds = %115, %65
  %67 = load i32, ptr %18, align 4, !tbaa !15
  %68 = load i32, ptr %23, align 4, !tbaa !15
  %69 = icmp sle i32 %67, %68
  br i1 %69, label %71, label %70

70:                                               ; preds = %66
  br label %124

71:                                               ; preds = %66
  %72 = load i32, ptr %18, align 4, !tbaa !15
  %73 = mul nsw i32 %72, 1
  %74 = add nsw i32 0, %73
  store i32 %74, ptr %26, align 4, !tbaa !15
  call void @llvm.lifetime.start.p0(i64 4, ptr %27) #3
  %75 = load i32, ptr %34, align 4, !tbaa !15
  %76 = load i32, ptr %35, align 4, !tbaa !15
  %77 = load i32, ptr %26, align 4, !tbaa !15
  %78 = mul nsw i32 %76, %77
  %79 = add nsw i32 %75, %78
  store i32 %79, ptr %27, align 4, !tbaa !15
  call void @llvm.lifetime.start.p0(i64 4, ptr %28) #3
  call void @llvm.lifetime.start.p0(i64 4, ptr %29) #3
  %80 = load i32, ptr %27, align 4, !tbaa !15
  %81 = load i32, ptr %35, align 4, !tbaa !15
  %82 = add nsw i32 %80, %81
  store i32 %82, ptr %29, align 4, !tbaa !15
  %83 = call noundef nonnull align 4 dereferenceable(4) ptr @_ZSt3minIiERKT_S2_S2_(ptr noundef nonnull align 4 dereferenceable(4) %36, ptr noundef nonnull align 4 dereferenceable(4) %29)
  %84 = load i32, ptr %83, align 4, !tbaa !15
  call void @llvm.lifetime.end.p0(i64 4, ptr %29) #3
  store i32 %84, ptr %28, align 4, !tbaa !15
  %85 = load i32, ptr %27, align 4, !tbaa !15
  %86 = load i32, ptr %28, align 4, !tbaa !15
  %87 = icmp slt i32 %85, %86
  br i1 %87, label %88, label %123

88:                                               ; preds = %71
  %89 = load ptr, ptr %17, align 8, !tbaa !1015
  %90 = load i32, ptr %26, align 4, !tbaa !15
  %91 = load i32, ptr %27, align 4, !tbaa !15
  %92 = load i32, ptr %28, align 4, !tbaa !15
  invoke void @_ZNKSt8functionIFviiiEEclEiii(ptr noundef nonnull align 8 dereferenceable(32) %89, i32 noundef %90, i32 noundef %91, i32 noundef %92)
          to label %93 unwind label %94

93:                                               ; preds = %88
  br label %123

94:                                               ; preds = %88
  %95 = landingpad { ptr, i32 }
          catch ptr @_ZTISt9exception
          catch ptr null
  %96 = extractvalue { ptr, i32 } %95, 0
  store ptr %96, ptr %30, align 8
  %97 = extractvalue { ptr, i32 } %95, 1
  store i32 %97, ptr %31, align 4
  call void @llvm.lifetime.end.p0(i64 4, ptr %28) #3
  call void @llvm.lifetime.end.p0(i64 4, ptr %27) #3
  br label %98

98:                                               ; preds = %94
  %99 = load i32, ptr %31, align 4
  %100 = call i32 @llvm.eh.typeid.for.p0(ptr @_ZTISt9exception) #3
  %101 = icmp eq i32 %99, %100
  br i1 %101, label %102, label %118

102:                                              ; preds = %98
  call void @llvm.lifetime.start.p0(i64 8, ptr %32) #3
  %103 = load ptr, ptr %30, align 8
  %104 = call ptr @__cxa_begin_catch(ptr %103) #3
  store ptr %104, ptr %32, align 8
  %105 = load ptr, ptr %32, align 8, !tbaa !329
  %106 = load ptr, ptr %105, align 8, !tbaa !132
  %107 = getelementptr inbounds ptr, ptr %106, i64 2
  %108 = load ptr, ptr %107, align 8
  %109 = call noundef ptr %108(ptr noundef nonnull align 8 dereferenceable(8) %105) #3
  invoke void (ptr, ...) @_ZN8LightGBM3Log7WarningEPKcz(ptr noundef %109)
          to label %110 unwind label %136

110:                                              ; preds = %102
  invoke void @_ZN21ThreadExceptionHelper16CaptureExceptionEv(ptr noundef nonnull align 8 dereferenceable(48) %38)
          to label %111 unwind label %136

111:                                              ; preds = %110
  invoke void @__cxa_end_catch()
          to label %112 unwind label %136

112:                                              ; preds = %111
  call void @llvm.lifetime.end.p0(i64 8, ptr %32) #3
  br label %113

113:                                              ; preds = %112, %122, %123
  br label %114

114:                                              ; preds = %113
  br label %115

115:                                              ; preds = %114
  %116 = load i32, ptr %18, align 4, !tbaa !15
  %117 = add nsw i32 %116, 1
  store i32 %117, ptr %18, align 4, !tbaa !15
  br label %66

118:                                              ; preds = %98
  %119 = load ptr, ptr %30, align 8
  %120 = call ptr @__cxa_begin_catch(ptr %119) #3
  invoke void @_ZN21ThreadExceptionHelper16CaptureExceptionEv(ptr noundef nonnull align 8 dereferenceable(48) %38)
          to label %121 unwind label %136

121:                                              ; preds = %118
  invoke void @__cxa_end_catch()
          to label %122 unwind label %136

122:                                              ; preds = %121
  br label %113

123:                                              ; preds = %93, %71
  call void @llvm.lifetime.end.p0(i64 4, ptr %28) #3
  call void @llvm.lifetime.end.p0(i64 4, ptr %27) #3
  br label %113

124:                                              ; preds = %70
  br label %125

125:                                              ; preds = %124
  %126 = load i32, ptr %22, align 4, !tbaa !15
  %127 = load i32, ptr %24, align 4, !tbaa !15
  %128 = add nsw i32 %126, %127
  store i32 %128, ptr %22, align 4, !tbaa !15
  %129 = load i32, ptr %23, align 4, !tbaa !15
  %130 = load i32, ptr %24, align 4, !tbaa !15
  %131 = add nsw i32 %129, %130
  store i32 %131, ptr %23, align 4, !tbaa !15
  br label %50

132:                                              ; preds = %64
  %133 = load ptr, ptr %9, align 8
  %134 = load i32, ptr %133, align 4, !tbaa !15
  call void @__kmpc_for_static_fini(ptr @1, i32 %134)
  call void @llvm.lifetime.end.p0(i64 4, ptr %26) #3
  call void @llvm.lifetime.end.p0(i64 4, ptr %25) #3
  call void @llvm.lifetime.end.p0(i64 4, ptr %24) #3
  call void @llvm.lifetime.end.p0(i64 4, ptr %23) #3
  call void @llvm.lifetime.end.p0(i64 4, ptr %22) #3
  br label %135

135:                                              ; preds = %132, %8
  call void @llvm.lifetime.end.p0(i64 4, ptr %20) #3
  call void @llvm.lifetime.end.p0(i64 4, ptr %19) #3
  call void @llvm.lifetime.end.p0(i64 4, ptr %18) #3
  ret void

136:                                              ; preds = %111, %110, %102, %121, %118
  %137 = landingpad { ptr, i32 }
          catch ptr null
  %138 = extractvalue { ptr, i32 } %137, 0
  call void @__clang_call_terminate(ptr %138) #30
  unreachable
}