; Function Attrs: alwaysinline norecurse nounwind uwtable
define internal void @_ZN8LightGBM9Threading3ForIiEEiT_S2_S2_RKSt8functionIFviS2_S2_EE.omp_outlined(ptr noalias noundef readonly captures(none) %0, ptr noalias readnone captures(none) %1, ptr noundef nonnull readonly align 4 captures(none) dereferenceable(4) %2, ptr noundef nonnull readonly align 4 captures(none) dereferenceable(4) %3, ptr noundef nonnull readonly align 4 captures(none) dereferenceable(4) %4, ptr noundef nonnull readonly align 4 captures(none) dereferenceable(4) %5, ptr noundef nonnull align 8 dereferenceable(32) %6, ptr noundef nonnull align 8 dereferenceable(48) %7) #21 personality ptr @__gxx_personality_v0 {
  %9 = alloca i32, align 4
  %10 = alloca i32, align 4
  %11 = alloca i32, align 4
  %12 = alloca i32, align 4
  %13 = alloca i32, align 4
  %14 = alloca i32, align 4
  %15 = alloca i32, align 4
  %16 = load i32, ptr %2, align 4, !tbaa !104
  %17 = add nsw i32 %16, -1
  %18 = icmp sgt i32 %16, 0
  br i1 %18, label %19, label %60

19:                                               ; preds = %8
  call void @llvm.lifetime.start.p0(i64 4, ptr nonnull %12) #20
  store i32 0, ptr %12, align 4, !tbaa !104
  call void @llvm.lifetime.start.p0(i64 4, ptr nonnull %13) #20
  store i32 %17, ptr %13, align 4, !tbaa !104
  call void @llvm.lifetime.start.p0(i64 4, ptr nonnull %14) #20
  store i32 1, ptr %14, align 4, !tbaa !104
  call void @llvm.lifetime.start.p0(i64 4, ptr nonnull %15) #20
  store i32 0, ptr %15, align 4, !tbaa !104
  %20 = load i32, ptr %0, align 4, !tbaa !104
  call void @__kmpc_for_static_init_4(ptr nonnull @1, i32 %20, i32 33, ptr nonnull %15, ptr nonnull %12, ptr nonnull %13, ptr nonnull %14, i32 1, i32 1)
  %21 = load i32, ptr %13, align 4, !tbaa !104
  %22 = call i32 @llvm.smin.i32(i32 %21, i32 %17)
  store i32 %22, ptr %13, align 4, !tbaa !104
  %23 = load i32, ptr %12, align 4, !tbaa !104
  %.not38 = icmp sgt i32 %23, %22
  br i1 %.not38, label %._crit_edge39, label %.preheader.lr.ph

.preheader.lr.ph:                                 ; preds = %19
  %24 = getelementptr inbounds nuw i8, ptr %6, i64 16
  %25 = getelementptr inbounds nuw i8, ptr %6, i64 24
  br label %.preheader

.preheader:                                       ; preds = %.preheader.lr.ph, %._crit_edge
  %26 = phi i32 [ %22, %.preheader.lr.ph ], [ %59, %._crit_edge ]
  %27 = phi i32 [ %23, %.preheader.lr.ph ], [ %57, %._crit_edge ]
  %.not3136 = icmp sgt i32 %27, %26
  br i1 %.not3136, label %._crit_edge, label %.lr.ph

.lr.ph:                                           ; preds = %.preheader, %52
  %.037 = phi i32 [ %53, %52 ], [ %27, %.preheader ]
  %28 = load i32, ptr %3, align 4, !tbaa !104
  %29 = load i32, ptr %4, align 4, !tbaa !104
  %30 = mul nsw i32 %29, %.037
  %31 = add nsw i32 %30, %28
  %32 = add nsw i32 %31, %29
  %33 = load i32, ptr %5, align 4, !tbaa !104
  %.sroa.speculated = call i32 @llvm.smin.i32(i32 %32, i32 %33)
  %34 = icmp slt i32 %31, %.sroa.speculated
  br i1 %34, label %35, label %52

35:                                               ; preds = %.lr.ph
  call void @llvm.lifetime.start.p0(i64 4, ptr nonnull %9)
  call void @llvm.lifetime.start.p0(i64 4, ptr nonnull %10)
  call void @llvm.lifetime.start.p0(i64 4, ptr nonnull %11)
  store i32 %.037, ptr %9, align 4, !tbaa !104
  store i32 %31, ptr %10, align 4, !tbaa !104
  store i32 %.sroa.speculated, ptr %11, align 4, !tbaa !104
  %36 = load ptr, ptr %24, align 8, !tbaa !521
  %.not.i.i = icmp eq ptr %36, null
  br i1 %.not.i.i, label %37, label %38

37:                                               ; preds = %35
  invoke void @_ZSt25__throw_bad_function_callv() #39
          to label %.noexc unwind label %40

.noexc:                                           ; preds = %37
  unreachable

38:                                               ; preds = %35
  %39 = load ptr, ptr %25, align 8, !tbaa !518
  invoke void %39(ptr noundef nonnull align 8 dereferenceable(32) %6, ptr noundef nonnull align 4 dereferenceable(4) %9, ptr noundef nonnull align 4 dereferenceable(4) %10, ptr noundef nonnull align 4 dereferenceable(4) %11)
          to label %_ZNKSt8functionIFviiiEEclEiii.exit unwind label %40

_ZNKSt8functionIFviiiEEclEiii.exit:               ; preds = %38
  call void @llvm.lifetime.end.p0(i64 4, ptr nonnull %9)
  call void @llvm.lifetime.end.p0(i64 4, ptr nonnull %10)
  call void @llvm.lifetime.end.p0(i64 4, ptr nonnull %11)
  br label %52

40:                                               ; preds = %38, %37
  %41 = landingpad { ptr, i32 }
          catch ptr @_ZTISt9exception
          catch ptr null
  %42 = extractvalue { ptr, i32 } %41, 0
  %43 = extractvalue { ptr, i32 } %41, 1
  %44 = call i32 @llvm.eh.typeid.for.p0(ptr nonnull @_ZTISt9exception) #20
  %45 = icmp eq i32 %43, %44
  %46 = call ptr @__cxa_begin_catch(ptr %42) #20
  br i1 %45, label %47, label %.invoke42

47:                                               ; preds = %40
  %48 = load ptr, ptr %46, align 8, !tbaa !99
  %49 = getelementptr inbounds nuw i8, ptr %48, i64 16
  %50 = load ptr, ptr %49, align 8
  %51 = call noundef ptr %50(ptr noundef nonnull align 8 dereferenceable(8) %46) #20
  invoke void (ptr, ...) @_ZN8LightGBM3Log7WarningEPKcz(ptr noundef %51)
          to label %.invoke42 unwind label %61

52:                                               ; preds = %.invoke, %_ZNKSt8functionIFviiiEEclEiii.exit, %.lr.ph
  %53 = add nsw i32 %.037, 1
  %54 = load i32, ptr %13, align 4, !tbaa !104
  %.not31.not = icmp slt i32 %.037, %54
  br i1 %.not31.not, label %.lr.ph, label %._crit_edge.loopexit

.invoke42:                                        ; preds = %40, %47
  invoke void @_ZN21ThreadExceptionHelper16CaptureExceptionEv(ptr noundef nonnull align 8 dereferenceable(48) %7)
          to label %.invoke unwind label %61

.invoke:                                          ; preds = %.invoke42
  invoke void @__cxa_end_catch()
          to label %52 unwind label %61

._crit_edge.loopexit:                             ; preds = %52
  %.pre = load i32, ptr %12, align 4, !tbaa !104
  br label %._crit_edge

._crit_edge:                                      ; preds = %._crit_edge.loopexit, %.preheader
  %55 = phi i32 [ %27, %.preheader ], [ %.pre, %._crit_edge.loopexit ]
  %.lcssa = phi i32 [ %26, %.preheader ], [ %54, %._crit_edge.loopexit ]
  %56 = load i32, ptr %14, align 4, !tbaa !104
  %57 = add nsw i32 %56, %55
  store i32 %57, ptr %12, align 4, !tbaa !104
  %58 = add nsw i32 %56, %.lcssa
  %59 = call i32 @llvm.smin.i32(i32 %58, i32 %17)
  store i32 %59, ptr %13, align 4, !tbaa !104
  %.not = icmp sgt i32 %57, %59
  br i1 %.not, label %._crit_edge39, label %.preheader

._crit_edge39:                                    ; preds = %._crit_edge, %19
  call void @__kmpc_for_static_fini(ptr nonnull @1, i32 %20)
  call void @llvm.lifetime.end.p0(i64 4, ptr nonnull %15) #20
  call void @llvm.lifetime.end.p0(i64 4, ptr nonnull %14) #20
  call void @llvm.lifetime.end.p0(i64 4, ptr nonnull %13) #20
  call void @llvm.lifetime.end.p0(i64 4, ptr nonnull %12) #20
  br label %60

60:                                               ; preds = %._crit_edge39, %8
  ret void

61:                                               ; preds = %.invoke42, %.invoke, %47
  %62 = landingpad { ptr, i32 }
          catch ptr null
  %63 = extractvalue { ptr, i32 } %62, 0
  call void @__clang_call_terminate(ptr %63) #41
  unreachable
}